; Function Attrs: nounwind uwtable
define hidden ptr @lxb_html_parse_fragment_by_tag_id(ptr nocapture noundef %0, ptr noundef %1, i64 noundef %2, i64 noundef %3, ptr noundef %4, i64 noundef %5) local_unnamed_addr #0 {
  %7 = tail call i32 @lxb_html_parse_fragment_chunk_begin(ptr noundef %0, ptr noundef %1, i64 noundef %2, i64 noundef %3)
  %8 = getelementptr inbounds i8, ptr %0, i64 44
  %9 = load i32, ptr %8, align 4
  %.not = icmp eq i32 %9, 0
  br i1 %.not, label %10, label %15

10:                                               ; preds = %6
  %11 = tail call i32 @lxb_html_parse_fragment_chunk_process(ptr noundef nonnull %0, ptr noundef %4, i64 noundef %5)
  %12 = load i32, ptr %8, align 4
  %.not10 = icmp eq i32 %12, 0
  br i1 %.not10, label %13, label %15

13:                                               ; preds = %10
  %14 = tail call ptr @lxb_html_parse_fragment_chunk_end(ptr noundef nonnull %0)
  br label %15

15:                                               ; preds = %10, %6, %13
  %.0 = phi ptr [ %14, %13 ], [ null, %6 ], [ null, %10 ]
  ret ptr %.0
}